((lp0
(csympy.core.symbol
Symbol
p1
(S'H'
p2
tp3
Rp4
(dp5
S'_assumptions'
p6
ccopy_reg
_reconstructor
p7
(csympy.core.assumptions
StdFactKB
p8
c__builtin__
dict
p9
(dp10
S'real'
p11
NsS'polar'
p12
NsS'irrational'
p13
NsS'antihermitian'
p14
NsS'nonpositive'
p15
NsS'hermitian'
p16
NsS'bounded'
p17
NsS'integer'
p18
NsS'imaginary'
p19
NsS'odd'
p20
NsS'even'
p21
NsS'commutative'
p22
I01
sS'zero'
p23
NsS'positive'
p24
NsS'negative'
p25
NsS'nonnegative'
p26
NsS'rational'
p27
Nstp28
Rp29
sbcsympy.core.mul
Mul
p30
(csympy.core.numbers
Rational
p31
(I9
I2
tp32
Rp33
(dp34
bg1
(S'J_2'
p35
tp36
Rp37
(dp38
g6
g7
(g8
g9
(dp39
S'real'
p40
NsS'polar'
p41
NsS'irrational'
p42
NsS'antihermitian'
p43
NsS'nonpositive'
p44
NsS'unbounded'
p45
NsS'hermitian'
p46
NsS'bounded'
p47
NsS'integer'
p48
NsS'imaginary'
p49
NsS'odd'
p50
NsS'even'
p51
NsS'commutative'
p52
I01
sS'zero'
p53
NsS'positive'
p54
NsS'negative'
p55
NsS'nonnegative'
p56
NsS'rational'
p57
Nstp58
Rp59
sbg1
(S'\\varepsilon'
p60
tp61
Rp62
(dp63
g6
g7
(g8
g9
(dp64
g40
Nsg41
Nsg52
I01
sg43
Nsg44
Nsg54
Nsg55
Nsg56
Nsg46
Nsg53
Nsg47
Nsg57
Nsg49
Nsg42
Nstp65
Rp66
sbcsympy.core.power
Pow
p67
(g1
(S'G'
p68
tp69
Rp70
(dp71
g6
g7
(g8
g9
(dp72
g40
Nsg41
NsS'irrational'
p73
NsS'antihermitian'
p74
Nsg44
Nsg45
NsS'hermitian'
p75
Nsg47
NsS'integer'
p76
NsS'imaginary'
p77
NsS'odd'
p78
NsS'even'
p79
Nsg52
I01
sS'zero'
p80
NsS'positive'
p81
Nsg55
Nsg56
Nsg57
Nstp82
Rp83
sbcsympy.core.numbers
Integer
p84
(I-4
tp85
Rp86
(dp87
btp88
Rp89
(dp90
bg67
(g1
(S'L'
p91
tp92
Rp93
(dp94
g6
g7
(g8
g9
(dp95
g40
Nsg41
Nsg42
Nsg43
Nsg44
Nsg46
Nsg47
Nsg48
Nsg49
Nsg50
Nsg51
Nsg52
I01
sg53
Nsg81
Nsg55
Nsg56
Nsg57
Nstp96
Rp97
sbg84
(I-3
tp98
Rp99
(dp100
btp101
Rp102
(dp103
bg67
(g1
(S'\\mathcal{G}'
p104
tp105
Rp106
(dp107
g6
g7
(g8
g9
(dp108
g40
Nsg41
Nsg52
I01
sg57
Nsg54
Nsg55
Nsg56
Nstp109
Rp110
sbg84
(I4
tp111
Rp112
(dp113
btp114
Rp115
(dp116
bg67
(g1
(S'm_2'
p117
tp118
Rp119
(dp120
g6
g7
(g8
g9
(dp121
g40
Nsg41
Nsg52
I01
sg43
Nsg44
Nsg81
Nsg55
Nsg56
Nsg46
Nsg53
Nsg47
Nsg57
Nsg49
Nsg42
Nstp122
Rp123
sbg84
(I3
tp124
Rp125
(dp126
btp127
Rp128
(dp129
btp130
Rp131
(dp132
btp133
a(g67
(csympy.core.add
Add
p134
(g70
g30
(csympy.core.numbers
NegativeOne
p135
(tRp136
(dp137
bg4
tp138
Rp139
(dp140
btp141
Rp142
(dp143
bg136
tp144
Rp145
(dp146
bg134
(g30
(g31
(I-3
I4
tp147
Rp148
(dp149
bg1
(S'\\tilde{H}_\\ast'
p150
tp151
Rp152
(dp153
g6
g7
(g8
g9
(dp154
S'real'
p155
Nsg41
Nsg73
Nsg74
NsS'nonpositive'
p156
Nsg45
Nsg80
NsS'bounded'
p157
Nsg48
Nsg75
Nsg50
Nsg77
Nsg51
Nsg52
I01
sg54
Nsg55
Nsg56
NsS'rational'
p158
Nstp159
Rp160
sbg62
g67
(g70
g84
(I-2
tp161
Rp162
(dp163
btp164
Rp165
(dp166
bg102
g115
g67
(g119
g112
tp167
Rp168
(dp169
btp170
Rp171
(dp172
bg30
(g31
(I-15
I16
tp173
Rp174
(dp175
bg62
g67
(g93
g86
tp176
Rp177
(dp178
bg115
g168
tp179
Rp180
(dp181
bg30
(g31
(I-1
I4
tp182
Rp183
(dp184
bg1
(S'\\mathcal{I}_1'
p185
tp186
Rp187
(dp188
g6
g7
(g8
g9
(dp189
S'real'
p190
NsS'polar'
p191
NsS'commutative'
p192
I01
sS'antihermitian'
p193
NsS'nonpositive'
p194
NsS'positive'
p195
NsS'negative'
p196
NsS'nonnegative'
p197
NsS'hermitian'
p198
NsS'zero'
p199
NsS'bounded'
p200
NsS'rational'
p201
NsS'imaginary'
p202
NsS'irrational'
p203
Nstp204
Rp205
sbg67
(g1
(S'\\tilde{G}'
p206
tp207
Rp208
(dp209
g6
g7
(g8
g9
(dp210
g155
Nsg191
Nsg73
Nsg74
Nsg156
Nsg45
Nsg75
Nsg157
Nsg48
Nsg77
Nsg50
Nsg51
Nsg192
I01
sg80
Nsg195
Nsg196
Nsg197
Nsg158
Nstp211
Rp212
sbg84
(I2
tp213
Rp214
(dp215
btp216
Rp217
(dp218
btp219
Rp220
(dp221
bg30
(csympy.core.numbers
Half
p222
(tRp223
(dp224
bg1
(S'\\mathcal{H}^\\prime'
p225
tp226
Rp227
(dp228
g6
g7
(g8
g9
(dp229
g190
Nsg191
Nsg192
I01
sg193
Nsg194
Nsg195
Nsg196
Nsg197
Nsg198
Nsg199
Nsg200
Nsg201
Nsg202
Nsg203
Nstp230
Rp231
sbtp232
Rp233
(dp234
bg30
(g223
g37
g152
g62
g67
(g70
g99
tp235
Rp236
(dp237
bg102
g115
g128
tp238
Rp239
(dp240
bg30
(g31
(I9
I4
tp241
Rp242
(dp243
bg62
g67
(g70
g136
tp244
Rp245
(dp246
bg102
g115
g168
tp247
Rp248
(dp249
bg30
(g31
(I-3
I2
tp250
Rp251
(dp252
bg37
g62
g165
g102
g115
g128
tp253
Rp254
(dp255
bg30
(g31
(I1
I4
tp256
Rp257
(dp258
bg67
(g93
g162
tp259
Rp260
(dp261
bg67
(g106
g214
tp262
Rp263
(dp264
bg67
(g119
g214
tp265
Rp266
(dp267
btp268
Rp269
(dp270
btp271
Rp272
(dp273
btp274
a(g67
(g134
(g70
g4
tp275
Rp276
(dp277
bg136
tp278
Rp279
(dp280
bg134
(g30
(g174
g62
g177
g115
g168
tp281
Rp282
(dp283
bg30
(g183
g187
g217
tp284
Rp285
(dp286
bg30
(g31
(I3
I4
tp287
Rp288
(dp289
bg152
g62
g165
g102
g115
g168
tp290
Rp291
(dp292
bg233
g30
(g223
g37
g152
g62
g236
g102
g115
g128
tp293
Rp294
(dp295
bg30
(g242
g62
g245
g102
g115
g168
tp296
Rp297
(dp298
bg30
(g31
(I3
I2
tp299
Rp300
(dp301
bg37
g62
g165
g102
g115
g128
tp302
Rp303
(dp304
bg30
(g257
g260
g263
g266
tp305
Rp306
(dp307
btp308
Rp309
(dp310
btp311
a(g67
(g134
(g30
(g136
g4
g37
tp312
Rp313
(dp314
bg30
(g119
g67
(g70
g214
tp315
Rp316
(dp317
btp318
Rp319
(dp320
btp321
Rp322
(dp323
bg136
tp324
Rp325
(dp326
bg134
(g30
(g136
g70
g187
g119
g217
tp327
Rp328
(dp329
bg30
(g136
g37
g152
g62
g165
g102
g115
g168
tp330
Rp331
(dp332
bg30
(g214
g70
g227
g119
tp333
Rp334
(dp335
bg30
(g31
(I-15
I4
tp336
Rp337
(dp338
bg70
g62
g177
g115
g67
(g119
g84
(I5
tp339
Rp340
(dp341
btp342
Rp343
(dp344
btp345
Rp346
(dp347
bg30
(g70
g260
g263
g128
tp348
Rp349
(dp350
bg30
(g125
g62
g102
g115
g343
tp351
Rp352
(dp353
btp354
Rp355
(dp356
btp357
a(csympy.core.numbers
One
p358
(tRp359
(dp360
bg134
(g30
(g31
(I-1
I2
tp361
Rp362
(dp363
bg37
g152
g62
g89
g102
g115
g128
tp364
Rp365
(dp366
bg30
(g31
(I-5
I2
tp367
Rp368
(dp369
bg245
g260
g263
g266
tp370
Rp371
(dp372
bg30
(g31
(I5
I2
tp373
Rp374
(dp375
bg187
g245
g217
tp376
Rp377
(dp378
bg30
(g84
(I-5
tp379
Rp380
(dp381
bg227
g245
tp382
Rp383
(dp384
bg30
(g31
(I75
I8
tp385
Rp386
(dp387
bg62
g245
g177
g115
g168
tp388
Rp389
(dp390
bg30
(g31
(I-21
I2
tp391
Rp392
(dp393
bg62
g165
g102
g115
g168
tp394
Rp395
(dp396
btp397
Rp398
(dp399
btp400
a(lp401
(g134
(g30
(g136
g1
(S'A'
p402
tp403
Rp404
(dp405
g6
g7
(g8
g9
(dp406
g155
Nsg73
Nsg74
Nsg156
Nsg45
Nsg80
Nsg157
Nsg48
Nsg75
Nsg50
Nsg77
Nsg51
NsS'commutative'
p407
I01
sS'positive'
p408
NsS'negative'
p409
NsS'nonnegative'
p410
Nsg158
Nstp411
Rp412
sbg67
(g134
(g30
(g136
g1
(S'\\wp'
p413
tp414
Rp415
(dp416
g6
g7
(g8
g9
(dp417
g155
Nsg73
Nsg74
Nsg156
Nsg45
Nsg80
Nsg157
Nsg48
Nsg75
Nsg50
Nsg77
Nsg51
Nsg407
I01
sg408
Nsg409
Nsg410
Nsg158
Nstp418
Rp419
sbtp420
Rp421
(dp422
bg1
(S'B'
p423
tp424
Rp425
(dp426
g6
g7
(g8
g9
(dp427
g155
Nsg407
I01
sg74
Nsg156
Nsg408
Nsg409
Nsg410
Nsg75
Nsg80
Nsg157
Nsg158
Nsg77
Nsg73
Nstp428
Rp429
sbtp430
Rp431
(dp432
bg136
tp433
Rp434
(dp435
btp436
Rp437
(dp438
bg1
(S'H_r'
p439
tp440
Rp441
(dp442
g6
g7
(g8
g9
(dp443
g155
Nsg73
Nsg74
Nsg156
Nsg45
Nsg75
Nsg157
Nsg48
Nsg77
Nsg50
Nsg51
Nsg407
I01
sg80
Nsg408
Nsg409
Nsg410
Nsg158
Nstp444
Rp445
sbtp446
Rp447
(dp448
bcspin_gr_theory
integral_func
p449
(g1
(S't'
p450
tp451
Rp452
(dp453
g6
g7
(g8
g9
(dp454
g407
I01
stp455
Rp456
sbg1
(S'g_2'
p457
tp458
Rp459
(dp460
g6
g7
(g8
g9
(dp461
g407
I01
stp462
Rp463
sbg1
(S'g_3'
p464
tp465
Rp466
(dp467
g6
g7
(g8
g9
(dp468
g407
I01
stp469
Rp470
sbg404
g425
g441
tp471
Rp472
(dp473
bg131
tp474
a(g134
(g67
(g134
(g70
g30
(g136
g441
tp475
Rp476
(dp477
btp478
Rp479
(dp480
bg136
tp481
Rp482
(dp483
bg30
(g136
g404
g482
g67
(g134
(g404
g30
(g425
g70
tp484
Rp485
(dp486
bg30
(g136
g425
g441
tp487
Rp488
(dp489
bg30
(g415
g134
(g441
g30
(g136
g70
tp490
Rp491
(dp492
btp493
Rp494
(dp495
btp496
Rp497
(dp498
btp499
Rp500
(dp501
bg136
tp502
Rp503
(dp504
btp505
Rp506
(dp507
btp508
Rp509
(dp510
bg449
(g452
g459
g466
g30
(g136
g404
g482
g67
(g494
g136
tp511
Rp512
(dp513
btp514
Rp515
(dp516
bg30
(g512
g134
(g30
(g136
g425
g70
tp517
Rp518
(dp519
bg30
(g136
g404
tp520
Rp521
(dp522
bg30
(g425
g441
tp523
Rp524
(dp525
btp526
Rp527
(dp528
btp529
Rp530
(dp531
bg482
tp532
Rp533
(dp534
bg272
tp535
a(g134
(g67
(g134
(g441
g70
tp536
Rp537
(dp538
bg136
tp539
Rp540
(dp541
bg30
(g136
g404
g540
g67
(g134
(g30
(g415
g537
tp542
Rp543
(dp544
bg404
g30
(g136
g425
g70
tp545
Rp546
(dp547
bg30
(g136
g425
g441
tp548
Rp549
(dp550
btp551
Rp552
(dp553
bg136
tp554
Rp555
(dp556
btp557
Rp558
(dp559
btp560
Rp561
(dp562
bg449
(g452
g459
g466
g30
(g136
g404
g67
(g537
g162
tp563
Rp564
(dp565
btp566
Rp567
(dp568
bg30
(g540
g134
(g485
g521
g524
tp569
Rp570
(dp571
btp572
Rp573
(dp574
bg540
tp575
Rp576
(dp577
bg309
tp578
a(g134
(g67
(g134
(g319
g30
(g136
g441
g37
tp579
Rp580
(dp581
btp582
Rp583
(dp584
bg136
tp585
Rp586
(dp587
bg30
(g136
g404
g37
g586
g67
(g134
(g30
(g415
g134
(g30
(g441
g37
tp588
Rp589
(dp590
bg30
(g136
g119
g316
tp591
Rp592
(dp593
btp594
Rp595
(dp596
btp597
Rp598
(dp599
bg30
(g425
g119
g316
tp600
Rp601
(dp602
bg30
(g404
g37
tp603
Rp604
(dp605
bg30
(g136
g425
g441
g37
tp606
Rp607
(dp608
btp609
Rp610
(dp611
bg136
tp612
Rp613
(dp614
btp615
Rp616
(dp617
btp618
Rp619
(dp620
bg449
(g452
g459
g466
g30
(g136
g404
g37
g67
(g595
g136
tp621
Rp622
(dp623
bg586
tp624
Rp625
(dp626
bg30
(g622
g134
(g30
(g425
g441
g37
tp627
Rp628
(dp629
bg30
(g136
g425
g119
g316
tp630
Rp631
(dp632
bg30
(g136
g404
g37
tp633
Rp634
(dp635
btp636
Rp637
(dp638
btp639
Rp640
(dp641
bg586
tp642
Rp643
(dp644
bg355
tp645
a(Ng452
g398
tp646
atp647
.