((lp0
(csympy.core.power
Pow
p1
(csympy.core.add
Add
p2
(csympy.core.symbol
Symbol
p3
(S'G'
p4
tp5
Rp6
(dp7
S'_assumptions'
p8
ccopy_reg
_reconstructor
p9
(csympy.core.assumptions
StdFactKB
p10
c__builtin__
dict
p11
(dp12
S'real'
p13
NsS'polar'
p14
NsS'irrational'
p15
NsS'antihermitian'
p16
NsS'nonpositive'
p17
NsS'unbounded'
p18
NsS'hermitian'
p19
NsS'bounded'
p20
NsS'integer'
p21
NsS'imaginary'
p22
NsS'odd'
p23
NsS'even'
p24
NsS'commutative'
p25
I01
sS'zero'
p26
NsS'positive'
p27
NsS'negative'
p28
NsS'nonnegative'
p29
NsS'rational'
p30
Nstp31
Rp32
sbcsympy.core.mul
Mul
p33
(csympy.core.numbers
NegativeOne
p34
(tRp35
(dp36
bg3
(S'H'
p37
tp38
Rp39
(dp40
g8
g9
(g10
g11
(dp41
S'real'
p42
NsS'polar'
p43
NsS'irrational'
p44
NsS'antihermitian'
p45
NsS'nonpositive'
p46
NsS'hermitian'
p47
NsS'bounded'
p48
NsS'integer'
p49
NsS'imaginary'
p50
NsS'odd'
p51
NsS'even'
p52
NsS'commutative'
p53
I01
sS'zero'
p54
NsS'positive'
p55
NsS'negative'
p56
NsS'nonnegative'
p57
NsS'rational'
p58
Nstp59
Rp60
sbtp61
Rp62
(dp63
btp64
Rp65
(dp66
bg35
tp67
Rp68
(dp69
bg2
(g33
(csympy.core.numbers
Rational
p70
(I-1
I2
tp71
Rp72
(dp73
bg3
(S'J_2'
p74
tp75
Rp76
(dp77
g8
g9
(g10
g11
(dp78
g13
Nsg14
NsS'irrational'
p79
NsS'antihermitian'
p80
Nsg17
Nsg18
NsS'hermitian'
p81
Nsg20
NsS'integer'
p82
NsS'imaginary'
p83
NsS'odd'
p84
NsS'even'
p85
Nsg25
I01
sS'zero'
p86
NsS'positive'
p87
Nsg28
Nsg29
Nsg30
Nstp88
Rp89
sbg3
(S'\\tilde{H}_\\ast'
p90
tp91
Rp92
(dp93
g8
g9
(g10
g11
(dp94
S'real'
p95
Nsg14
Nsg15
Nsg16
NsS'nonpositive'
p96
Nsg18
Nsg26
NsS'bounded'
p97
Nsg82
Nsg19
Nsg84
Nsg22
Nsg85
Nsg25
I01
sg87
Nsg28
Nsg29
NsS'rational'
p98
Nstp99
Rp100
sbg3
(S'\\varepsilon'
p101
tp102
Rp103
(dp104
g8
g9
(g10
g11
(dp105
g13
Nsg14
Nsg25
I01
sg80
Nsg17
Nsg87
Nsg28
Nsg29
Nsg81
Nsg86
Nsg20
Nsg30
Nsg83
Nsg79
Nstp106
Rp107
sbg1
(g6
csympy.core.numbers
Integer
p108
(I-3
tp109
Rp110
(dp111
btp112
Rp113
(dp114
bg1
(g3
(S'L'
p115
tp116
Rp117
(dp118
g8
g9
(g10
g11
(dp119
g13
Nsg14
Nsg79
Nsg80
Nsg17
Nsg81
Nsg20
Nsg82
Nsg83
Nsg84
Nsg85
Nsg25
I01
sg86
Nsg27
Nsg28
Nsg29
Nsg30
Nstp120
Rp121
sbg110
tp122
Rp123
(dp124
bg1
(g3
(S'\\mathcal{G}'
p125
tp126
Rp127
(dp128
g8
g9
(g10
g11
(dp129
g13
Nsg14
Nsg25
I01
sg30
Nsg87
Nsg28
Nsg29
Nstp130
Rp131
sbg108
(I4
tp132
Rp133
(dp134
btp135
Rp136
(dp137
bg1
(g3
(S'm_2'
p138
tp139
Rp140
(dp141
g8
g9
(g10
g11
(dp142
g13
Nsg14
Nsg25
I01
sg80
Nsg17
Nsg27
Nsg28
Nsg29
Nsg81
Nsg86
Nsg20
Nsg30
Nsg83
Nsg79
Nstp143
Rp144
sbg108
(I3
tp145
Rp146
(dp147
btp148
Rp149
(dp150
btp151
Rp152
(dp153
bg33
(g72
g3
(S'\\mathcal{H}^\\prime'
p154
tp155
Rp156
(dp157
g8
g9
(g10
g11
(dp158
S'real'
p159
NsS'polar'
p160
NsS'commutative'
p161
I01
sS'antihermitian'
p162
NsS'nonpositive'
p163
NsS'positive'
p164
NsS'negative'
p165
NsS'nonnegative'
p166
NsS'hermitian'
p167
NsS'zero'
p168
NsS'bounded'
p169
NsS'rational'
p170
NsS'imaginary'
p171
NsS'irrational'
p172
Nstp173
Rp174
sbtp175
Rp176
(dp177
bg33
(g70
(I3
I4
tp178
Rp179
(dp180
bg92
g103
g1
(g6
g108
(I-2
tp181
Rp182
(dp183
btp184
Rp185
(dp186
bg123
g136
g1
(g140
g133
tp187
Rp188
(dp189
btp190
Rp191
(dp192
bg33
(g70
(I-9
I4
tp193
Rp194
(dp195
bg103
g1
(g6
g35
tp196
Rp197
(dp198
bg123
g136
g188
tp199
Rp200
(dp201
bg33
(g70
(I15
I16
tp202
Rp203
(dp204
bg103
g1
(g117
g108
(I-4
tp205
Rp206
(dp207
btp208
Rp209
(dp210
bg136
g188
tp211
Rp212
(dp213
bg33
(g70
(I-1
I4
tp214
Rp215
(dp216
bg1
(g117
g182
tp217
Rp218
(dp219
bg1
(g127
g108
(I2
tp220
Rp221
(dp222
btp223
Rp224
(dp225
bg1
(g140
g221
tp226
Rp227
(dp228
btp229
Rp230
(dp231
bg33
(g70
(I3
I2
tp232
Rp233
(dp234
bg76
g103
g185
g123
g136
g149
tp235
Rp236
(dp237
bg33
(g70
(I1
I4
tp238
Rp239
(dp240
bg3
(S'\\mathcal{I}_1'
p241
tp242
Rp243
(dp244
g8
g9
(g10
g11
(dp245
g159
Nsg160
Nsg161
I01
sg162
Nsg163
Nsg164
Nsg165
Nsg166
Nsg167
Nsg168
Nsg169
Nsg170
Nsg171
Nsg172
Nstp246
Rp247
sbg1
(g3
(S'\\tilde{G}'
p248
tp249
Rp250
(dp251
g8
g9
(g10
g11
(dp252
g95
Nsg160
Nsg15
Nsg16
Nsg96
Nsg18
Nsg19
Nsg97
Nsg82
Nsg22
Nsg84
Nsg85
Nsg161
I01
sg26
Nsg164
Nsg165
Nsg166
Nsg98
Nstp253
Rp254
sbg221
tp255
Rp256
(dp257
btp258
Rp259
(dp260
btp261
Rp262
(dp263
btp264
a(g1
(g2
(g6
g39
tp265
Rp266
(dp267
bg35
tp268
Rp269
(dp270
bg2
(g33
(g70
(I-15
I16
tp271
Rp272
(dp273
bg103
g209
g136
g188
tp274
Rp275
(dp276
bg33
(g215
g243
g256
tp277
Rp278
(dp279
bg33
(g179
g92
g103
g185
g123
g136
g188
tp280
Rp281
(dp282
bg33
(csympy.core.numbers
Half
p283
(tRp284
(dp285
bg156
tp286
Rp287
(dp288
bg33
(g284
g76
g92
g103
g113
g123
g136
g149
tp289
Rp290
(dp291
bg33
(g70
(I9
I4
tp292
Rp293
(dp294
bg103
g197
g123
g136
g188
tp295
Rp296
(dp297
bg33
(g233
g76
g103
g185
g123
g136
g149
tp298
Rp299
(dp300
bg33
(g239
g218
g224
g227
tp301
Rp302
(dp303
btp304
Rp305
(dp306
btp307
a(g1
(g2
(g33
(g35
g39
g76
tp308
Rp309
(dp310
bg33
(g140
g1
(g6
g221
tp311
Rp312
(dp313
btp314
Rp315
(dp316
btp317
Rp318
(dp319
bg35
tp320
Rp321
(dp322
bg2
(g33
(g284
g76
g243
g256
tp323
Rp324
(dp325
bg33
(g35
g76
g156
tp326
Rp327
(dp328
bg33
(g72
g76
g218
g224
g227
tp329
Rp330
(dp331
bg33
(g70
(I-3
I2
tp332
Rp333
(dp334
bg76
g103
g197
g123
g136
g188
tp335
Rp336
(dp337
bg33
(g284
g92
g103
g113
g1
(g76
g221
tp338
Rp339
(dp340
bg123
g136
g149
tp341
Rp342
(dp343
bg33
(g70
(I15
I8
tp344
Rp345
(dp346
bg76
g103
g209
g136
g188
tp347
Rp348
(dp349
btp350
Rp351
(dp352
btp353
a(g1
(g2
(g39
g33
(g35
g92
tp354
Rp355
(dp356
bg250
tp357
Rp358
(dp359
bg35
tp360
Rp361
(dp362
bg2
(g33
(g272
g103
g209
g136
g188
tp363
Rp364
(dp365
bg33
(g215
g243
g256
tp366
Rp367
(dp368
bg287
g33
(g179
g76
g250
g103
g1
(g6
g108
(I-5
tp369
Rp370
(dp371
btp372
Rp373
(dp374
bg123
g136
g1
(g92
g221
tp375
Rp376
(dp377
bg149
tp378
Rp379
(dp380
bg33
(g70
(I-3
I4
tp381
Rp382
(dp383
bg250
g92
g103
g113
g123
g136
g188
tp384
Rp385
(dp386
bg33
(g333
g76
g92
g103
g373
g123
g136
g256
g149
tp387
Rp388
(dp389
bg33
(g179
g76
g250
g103
g113
g123
g136
g149
tp390
Rp391
(dp392
bg33
(g179
g76
g103
g373
g123
g136
g1
(g250
g146
tp393
Rp394
(dp395
bg149
tp396
Rp397
(dp398
bg33
(g35
g76
g92
g103
g113
g123
g136
g149
tp399
Rp400
(dp401
bg33
(g239
g218
g224
g227
tp402
Rp403
(dp404
bg33
(g233
g103
g197
g123
g136
g188
tp405
Rp406
(dp407
bg33
(g179
g103
g113
g123
g136
g256
g188
tp408
Rp409
(dp410
btp411
Rp412
(dp413
btp414
a(g1
(g2
(g33
(g35
g250
tp415
Rp416
(dp417
bg39
g355
tp418
Rp419
(dp420
bg35
tp421
Rp422
(dp423
bg2
(g33
(g382
g76
g250
g103
g113
g123
g136
g149
tp424
Rp425
(dp426
bg33
(g272
g103
g209
g136
g188
tp427
Rp428
(dp429
bg33
(g215
g243
g256
tp430
Rp431
(dp432
bg33
(g179
g250
g92
g103
g113
g123
g136
g188
tp433
Rp434
(dp435
bg287
g33
(g333
g76
g92
g103
g373
g123
g136
g256
g149
tp436
Rp437
(dp438
bg33
(g382
g76
g250
g103
g373
g123
g136
g376
g149
tp439
Rp440
(dp441
bg33
(g382
g76
g103
g373
g123
g136
g394
g149
tp442
Rp443
(dp444
bg33
(g35
g76
g92
g103
g113
g123
g136
g149
tp445
Rp446
(dp447
bg33
(g239
g218
g224
g227
tp448
Rp449
(dp450
bg33
(g233
g103
g197
g123
g136
g188
tp451
Rp452
(dp453
bg33
(g179
g103
g113
g123
g136
g256
g188
tp454
Rp455
(dp456
btp457
Rp458
(dp459
btp460
a(csympy.core.numbers
One
p461
(tRp462
(dp463
bg2
(g33
(g333
g76
g103
g373
g123
g136
g256
g149
tp464
Rp465
(dp466
bg33
(g70
(I-9
I2
tp467
Rp468
(dp469
bg76
g103
g113
g123
g136
g149
tp470
Rp471
(dp472
btp473
Rp474
(dp475
btp476
a(lp477
(g2
(g33
(g35
g3
(S'A'
p478
tp479
Rp480
(dp481
g8
g9
(g10
g11
(dp482
g95
Nsg15
Nsg16
Nsg96
Nsg18
Nsg26
Nsg97
Nsg82
Nsg19
Nsg84
Nsg22
Nsg85
NsS'commutative'
p483
I01
sS'positive'
p484
NsS'negative'
p485
NsS'nonnegative'
p486
Nsg98
Nstp487
Rp488
sbg1
(g2
(g6
g33
(g35
g3
(S'H_r'
p489
tp490
Rp491
(dp492
g8
g9
(g10
g11
(dp493
g95
Nsg15
Nsg16
Nsg96
Nsg18
Nsg19
Nsg97
Nsg82
Nsg22
Nsg84
Nsg85
Nsg483
I01
sg26
Nsg484
Nsg485
Nsg486
Nsg98
Nstp494
Rp495
sbtp496
Rp497
(dp498
btp499
Rp500
(dp501
bg35
tp502
Rp503
(dp504
bg1
(g2
(g480
g33
(g491
g3
(S'\\wp'
p505
tp506
Rp507
(dp508
g8
g9
(g10
g11
(dp509
g95
Nsg15
Nsg16
Nsg96
Nsg18
Nsg26
Nsg97
Nsg82
Nsg19
Nsg84
Nsg22
Nsg85
Nsg483
I01
sg484
Nsg485
Nsg486
Nsg98
Nstp510
Rp511
sbtp512
Rp513
(dp514
bg33
(g3
(S'B'
p515
tp516
Rp517
(dp518
g8
g9
(g10
g11
(dp519
g95
Nsg483
I01
sg16
Nsg96
Nsg484
Nsg485
Nsg486
Nsg19
Nsg26
Nsg97
Nsg98
Nsg22
Nsg15
Nstp520
Rp521
sbg6
tp522
Rp523
(dp524
bg33
(g35
g517
g491
tp525
Rp526
(dp527
bg33
(g35
g6
g507
tp528
Rp529
(dp530
btp531
Rp532
(dp533
bg35
tp534
Rp535
(dp536
btp537
Rp538
(dp539
bg503
tp540
Rp541
(dp542
bcspin_gr_theory
integral_func
p543
(g3
(S't'
p544
tp545
Rp546
(dp547
g8
g9
(g10
g11
(dp548
g483
I01
stp549
Rp550
sbg3
(S'g_2'
p551
tp552
Rp553
(dp554
g8
g9
(g10
g11
(dp555
g483
I01
stp556
Rp557
sbg3
(S'g_3'
p558
tp559
Rp560
(dp561
g8
g9
(g10
g11
(dp562
g483
I01
stp563
Rp564
sbg33
(g35
g480
g503
g1
(g2
(g491
g33
(g35
g6
tp565
Rp566
(dp567
btp568
Rp569
(dp570
bg35
tp571
Rp572
(dp573
btp574
Rp575
(dp576
bg33
(g572
g2
(g33
(g35
g517
g6
tp577
Rp578
(dp579
bg33
(g35
g480
tp580
Rp581
(dp582
bg33
(g517
g491
tp583
Rp584
(dp585
btp586
Rp587
(dp588
btp589
Rp590
(dp591
bg503
tp592
Rp593
(dp594
bg262
tp595
a(g2
(g1
(g2
(g491
g6
tp596
Rp597
(dp598
bg35
tp599
Rp600
(dp601
bg33
(g35
g480
g600
g1
(g2
(g480
g33
(g35
g517
g6
tp602
Rp603
(dp604
bg513
g33
(g6
g507
tp605
Rp606
(dp607
bg33
(g35
g517
g491
tp608
Rp609
(dp610
btp611
Rp612
(dp613
bg35
tp614
Rp615
(dp616
btp617
Rp618
(dp619
btp620
Rp621
(dp622
bg543
(g546
g553
g560
g33
(g35
g480
g1
(g597
g182
tp623
Rp624
(dp625
btp626
Rp627
(dp628
bg33
(g600
g2
(g523
g581
g584
tp629
Rp630
(dp631
btp632
Rp633
(dp634
bg600
tp635
Rp636
(dp637
bg305
tp638
a(g2
(g1
(g2
(g315
g33
(g35
g491
g76
tp639
Rp640
(dp641
btp642
Rp643
(dp644
bg35
tp645
Rp646
(dp647
bg33
(g35
g480
g76
g646
g1
(g2
(g33
(g491
g76
g507
tp648
Rp649
(dp650
bg33
(g35
g507
g140
g312
tp651
Rp652
(dp653
bg33
(g517
g140
g312
tp654
Rp655
(dp656
bg33
(g480
g76
tp657
Rp658
(dp659
bg33
(g35
g517
g491
g76
tp660
Rp661
(dp662
btp663
Rp664
(dp665
bg35
tp666
Rp667
(dp668
btp669
Rp670
(dp671
btp672
Rp673
(dp674
bg543
(g546
g553
g560
g33
(g35
g480
g76
g1
(g2
(g33
(g491
g76
tp675
Rp676
(dp677
bg33
(g35
g140
g312
tp678
Rp679
(dp680
btp681
Rp682
(dp683
bg35
tp684
Rp685
(dp686
bg646
tp687
Rp688
(dp689
bg33
(g685
g2
(g33
(g517
g491
g76
tp690
Rp691
(dp692
bg33
(g35
g517
g140
g312
tp693
Rp694
(dp695
bg33
(g35
g480
g76
tp696
Rp697
(dp698
btp699
Rp700
(dp701
btp702
Rp703
(dp704
bg646
tp705
Rp706
(dp707
bg351
tp708
a(g2
(g33
(g35
g480
g1
(g2
(g491
g355
g250
tp709
Rp710
(dp711
bg35
tp712
Rp713
(dp714
bg1
(g2
(g33
(g35
g92
g507
tp715
Rp716
(dp717
bg480
g33
(g507
g2
(g491
g250
tp718
Rp719
(dp720
btp721
Rp722
(dp723
bg33
(g35
g517
g491
tp724
Rp725
(dp726
bg33
(g35
g517
g250
tp727
Rp728
(dp729
bg33
(g517
g92
tp730
Rp731
(dp732
btp733
Rp734
(dp735
bg35
tp736
Rp737
(dp738
btp739
Rp740
(dp741
bg713
tp742
Rp743
(dp744
bg543
(g546
g553
g560
g33
(g35
g480
g1
(g710
g182
tp745
Rp746
(dp747
btp748
Rp749
(dp750
bg33
(g713
g2
(g33
(g517
g250
tp751
Rp752
(dp753
bg33
(g35
g517
g92
tp754
Rp755
(dp756
bg581
g584
tp757
Rp758
(dp759
btp760
Rp761
(dp762
bg713
tp763
Rp764
(dp765
bg412
tp766
a(g2
(g33
(g480
g1
(g2
(g92
g497
g250
tp767
Rp768
(dp769
bg35
tp770
Rp771
(dp772
bg1
(g2
(g33
(g35
g92
g507
tp773
Rp774
(dp775
bg480
g752
g33
(g35
g517
g491
tp776
Rp777
(dp778
bg33
(g507
g2
(g416
g491
tp779
Rp780
(dp781
btp782
Rp783
(dp784
bg731
tp785
Rp786
(dp787
bg35
tp788
Rp789
(dp790
btp791
Rp792
(dp793
bg33
(g35
g771
tp794
Rp795
(dp796
btp797
Rp798
(dp799
bg543
(g546
g553
g560
g33
(g480
g771
g1
(g2
(g416
g491
g355
tp800
Rp801
(dp802
bg35
tp803
Rp804
(dp805
btp806
Rp807
(dp808
bg33
(g804
g2
(g33
(g35
g517
g92
tp809
Rp810
(dp811
bg581
g33
(g35
g517
g250
tp812
Rp813
(dp814
bg584
tp815
Rp816
(dp817
btp818
Rp819
(dp820
bg795
tp821
Rp822
(dp823
bg458
tp824
a(Ng546
g474
tp825
atp826
.