((lp0
(csympy.core.power
Pow
p1
(csympy.core.add
Add
p2
(csympy.core.symbol
Symbol
p3
(S'H'
p4
tp5
Rp6
(dp7
S'_assumptions'
p8
ccopy_reg
_reconstructor
p9
(csympy.core.assumptions
StdFactKB
p10
c__builtin__
dict
p11
(dp12
S'real'
p13
NsS'polar'
p14
NsS'irrational'
p15
NsS'antihermitian'
p16
NsS'nonpositive'
p17
NsS'hermitian'
p18
NsS'bounded'
p19
NsS'integer'
p20
NsS'imaginary'
p21
NsS'odd'
p22
NsS'even'
p23
NsS'commutative'
p24
I01
sS'zero'
p25
NsS'positive'
p26
NsS'negative'
p27
NsS'nonnegative'
p28
NsS'rational'
p29
Nstp30
Rp31
sbcsympy.core.mul
Mul
p32
(csympy.core.numbers
NegativeOne
p33
(tRp34
(dp35
bg3
(S'\\tilde{H}_\\ast'
p36
tp37
Rp38
(dp39
g8
g9
(g10
g11
(dp40
S'real'
p41
NsS'polar'
p42
NsS'irrational'
p43
NsS'antihermitian'
p44
NsS'nonpositive'
p45
NsS'unbounded'
p46
NsS'zero'
p47
NsS'bounded'
p48
NsS'integer'
p49
NsS'hermitian'
p50
NsS'odd'
p51
NsS'imaginary'
p52
NsS'even'
p53
NsS'commutative'
p54
I01
sS'positive'
p55
NsS'negative'
p56
NsS'nonnegative'
p57
NsS'rational'
p58
Nstp59
Rp60
sbtp61
Rp62
(dp63
bg3
(S'\\tilde{G}'
p64
tp65
Rp66
(dp67
g8
g9
(g10
g11
(dp68
g41
NsS'polar'
p69
Nsg43
Nsg44
Nsg45
Nsg46
Nsg50
Nsg48
Nsg49
Nsg52
Nsg51
Nsg53
NsS'commutative'
p70
I01
sg47
NsS'positive'
p71
NsS'negative'
p72
NsS'nonnegative'
p73
Nsg58
Nstp74
Rp75
sbtp76
Rp77
(dp78
bg34
tp79
Rp80
(dp81
bg2
(g32
(csympy.core.numbers
Rational
p82
(I-3
I2
tp83
Rp84
(dp85
bg3
(S'\\varepsilon'
p86
tp87
Rp88
(dp89
g8
g9
(g10
g11
(dp90
S'real'
p91
Nsg42
Nsg54
I01
sS'antihermitian'
p92
NsS'nonpositive'
p93
Nsg55
Nsg56
Nsg57
NsS'hermitian'
p94
NsS'zero'
p95
NsS'bounded'
p96
NsS'rational'
p97
NsS'imaginary'
p98
NsS'irrational'
p99
Nstp100
Rp101
sbg1
(g3
(S'G'
p102
tp103
Rp104
(dp105
g8
g9
(g10
g11
(dp106
g91
Nsg42
Nsg43
Nsg44
Nsg93
Nsg46
Nsg50
Nsg96
NsS'integer'
p107
Nsg52
NsS'odd'
p108
NsS'even'
p109
Nsg54
I01
sg47
NsS'positive'
p110
Nsg56
Nsg57
Nsg97
Nstp111
Rp112
sbg34
tp113
Rp114
(dp115
bg1
(g3
(S'L'
p116
tp117
Rp118
(dp119
g8
g9
(g10
g11
(dp120
g91
Nsg42
Nsg99
Nsg92
Nsg93
Nsg94
Nsg96
Nsg49
Nsg98
Nsg51
Nsg53
Nsg54
I01
sg95
Nsg110
Nsg56
Nsg57
Nsg97
Nstp121
Rp122
sbcsympy.core.numbers
Integer
p123
(I-3
tp124
Rp125
(dp126
btp127
Rp128
(dp129
bg1
(g3
(S'\\mathcal{G}'
p130
tp131
Rp132
(dp133
g8
g9
(g10
g11
(dp134
g91
Nsg42
Nsg54
I01
sg97
Nsg55
Nsg56
Nsg57
Nstp135
Rp136
sbg123
(I4
tp137
Rp138
(dp139
btp140
Rp141
(dp142
bg1
(g3
(S'm_2'
p143
tp144
Rp145
(dp146
g8
g9
(g10
g11
(dp147
g91
Nsg42
Nsg54
I01
sg92
Nsg93
Nsg110
Nsg56
Nsg57
Nsg94
Nsg95
Nsg96
Nsg97
Nsg98
Nsg99
Nstp148
Rp149
sbg138
tp150
Rp151
(dp152
btp153
Rp154
(dp155
bg32
(g82
(I-3
I4
tp156
Rp157
(dp158
bg3
(S'J_2'
p159
tp160
Rp161
(dp162
g8
g9
(g10
g11
(dp163
g91
Nsg42
Nsg99
Nsg92
Nsg93
Nsg46
Nsg94
Nsg96
Nsg49
Nsg98
Nsg51
Nsg53
Nsg54
I01
sg95
Nsg55
Nsg56
Nsg57
Nsg97
Nstp164
Rp165
sbg66
g88
g1
(g104
g125
tp166
Rp167
(dp168
bg128
g141
g1
(g145
g123
(I3
tp169
Rp170
(dp171
btp172
Rp173
(dp174
btp175
Rp176
(dp177
bg32
(g82
(I-1
I2
tp178
Rp179
(dp180
bg3
(S'\\mathcal{H}^\\prime'
p181
tp182
Rp183
(dp184
g8
g9
(g10
g11
(dp185
S'real'
p186
Nsg69
Nsg70
I01
sS'antihermitian'
p187
NsS'nonpositive'
p188
Nsg71
Nsg72
Nsg73
NsS'hermitian'
p189
NsS'zero'
p190
NsS'bounded'
p191
NsS'rational'
p192
NsS'imaginary'
p193
NsS'irrational'
p194
Nstp195
Rp196
sbtp197
Rp198
(dp199
bg32
(g82
(I3
I4
tp200
Rp201
(dp202
bg66
g38
g88
g167
g128
g141
g151
tp203
Rp204
(dp205
bg32
(g157
g161
g66
g88
g1
(g104
g123
(I-5
tp206
Rp207
(dp208
btp209
Rp210
(dp211
bg128
g141
g1
(g38
g123
(I2
tp212
Rp213
(dp214
btp215
Rp216
(dp217
bg173
tp218
Rp219
(dp220
bg32
(g82
(I15
I16
tp221
Rp222
(dp223
bg88
g1
(g118
g123
(I-4
tp224
Rp225
(dp226
btp227
Rp228
(dp229
bg141
g151
tp230
Rp231
(dp232
bg32
(g157
g161
g88
g210
g128
g141
g1
(g66
g170
tp233
Rp234
(dp235
bg173
tp236
Rp237
(dp238
bg32
(g82
(I3
I2
tp239
Rp240
(dp241
bg161
g38
g88
g210
g128
g141
g1
(g66
g213
tp242
Rp243
(dp244
bg173
tp245
Rp246
(dp247
bg32
(g82
(I-1
I4
tp248
Rp249
(dp250
bg1
(g118
g123
(I-2
tp251
Rp252
(dp253
btp254
Rp255
(dp256
bg1
(g132
g213
tp257
Rp258
(dp259
bg1
(g145
g213
tp260
Rp261
(dp262
btp263
Rp264
(dp265
bg32
(g161
g38
g88
g167
g128
g141
g173
tp266
Rp267
(dp268
bg32
(g82
(I1
I4
tp269
Rp270
(dp271
bg3
(S'\\mathcal{I}_1'
p272
tp273
Rp274
(dp275
g8
g9
(g10
g11
(dp276
g186
Nsg69
Nsg70
I01
sg187
Nsg188
Nsg71
Nsg72
Nsg73
Nsg189
Nsg190
Nsg191
Nsg192
Nsg193
Nsg194
Nstp277
Rp278
sbg243
tp279
Rp280
(dp281
bg32
(g157
g88
g167
g128
g141
g243
g151
tp282
Rp283
(dp284
btp285
Rp286
(dp287
btp288
a(g1
(g2
(g32
(g34
g66
tp289
Rp290
(dp291
bg6
g62
tp292
Rp293
(dp294
bg34
tp295
Rp296
(dp297
bg2
(g32
(g84
g88
g114
g128
g141
g151
tp298
Rp299
(dp300
bg198
g32
(g201
g161
g66
g88
g210
g128
g141
g216
g173
tp301
Rp302
(dp303
bg32
(g157
g66
g38
g88
g167
g128
g141
g151
tp304
Rp305
(dp306
bg32
(g201
g161
g66
g88
g167
g128
g141
g173
tp307
Rp308
(dp309
bg32
(g222
g88
g228
g141
g151
tp310
Rp311
(dp312
bg32
(g201
g161
g88
g210
g128
g141
g234
g173
tp313
Rp314
(dp315
bg32
(g240
g161
g38
g88
g210
g128
g141
g243
g173
tp316
Rp317
(dp318
bg32
(g249
g255
g258
g261
tp319
Rp320
(dp321
bg267
g32
(g270
g274
g243
tp322
Rp323
(dp324
bg32
(g157
g88
g167
g128
g141
g243
g151
tp325
Rp326
(dp327
btp328
Rp329
(dp330
btp331
a(csympy.core.numbers
One
p332
(tRp333
(dp334
bg2
(g32
(g240
g161
g88
g210
g128
g141
g243
g173
tp335
Rp336
(dp337
bg32
(g213
g161
g88
g167
g128
g141
g173
tp338
Rp339
(dp340
btp341
Rp342
(dp343
btp344
a(lp345
(g2
(g32
(g34
g3
(S'A'
p346
tp347
Rp348
(dp349
g8
g9
(g10
g11
(dp350
g41
Nsg43
Nsg44
Nsg45
Nsg46
Nsg47
Nsg48
Nsg49
Nsg50
Nsg51
Nsg52
Nsg53
NsS'commutative'
p351
I01
sS'positive'
p352
NsS'negative'
p353
NsS'nonnegative'
p354
Nsg58
Nstp355
Rp356
sbg1
(g2
(g3
(S'H_r'
p357
tp358
Rp359
(dp360
g8
g9
(g10
g11
(dp361
g41
Nsg43
Nsg44
Nsg45
Nsg46
Nsg50
Nsg48
Nsg49
Nsg52
Nsg51
Nsg53
Nsg351
I01
sg47
Nsg352
Nsg353
Nsg354
Nsg58
Nstp362
Rp363
sbg62
g66
tp364
Rp365
(dp366
bg34
tp367
Rp368
(dp369
bg1
(g2
(g32
(g34
g38
g3
(S'\\wp'
p370
tp371
Rp372
(dp373
g8
g9
(g10
g11
(dp374
g41
Nsg43
Nsg44
Nsg45
Nsg46
Nsg47
Nsg48
Nsg49
Nsg50
Nsg51
Nsg52
Nsg53
Nsg351
I01
sg352
Nsg353
Nsg354
Nsg58
Nstp375
Rp376
sbtp377
Rp378
(dp379
bg348
g32
(g372
g2
(g359
g66
tp380
Rp381
(dp382
btp383
Rp384
(dp385
bg32
(g34
g3
(S'B'
p386
tp387
Rp388
(dp389
g8
g9
(g10
g11
(dp390
g41
Nsg351
I01
sg44
Nsg45
Nsg352
Nsg353
Nsg354
Nsg50
Nsg47
Nsg48
Nsg58
Nsg52
Nsg43
Nstp391
Rp392
sbg359
tp393
Rp394
(dp395
bg32
(g34
g388
g66
tp396
Rp397
(dp398
bg32
(g388
g38
tp399
Rp400
(dp401
btp402
Rp403
(dp404
bg34
tp405
Rp406
(dp407
btp408
Rp409
(dp410
bg368
tp411
Rp412
(dp413
bcspin_gr_theory
integral_func
p414
(g3
(S't'
p415
tp416
Rp417
(dp418
g8
g9
(g10
g11
(dp419
g351
I01
stp420
Rp421
sbg3
(S'g_2'
p422
tp423
Rp424
(dp425
g8
g9
(g10
g11
(dp426
g351
I01
stp427
Rp428
sbg3
(S'g_3'
p429
tp430
Rp431
(dp432
g8
g9
(g10
g11
(dp433
g351
I01
stp434
Rp435
sbg32
(g34
g348
g1
(g365
g252
tp436
Rp437
(dp438
btp439
Rp440
(dp441
bg32
(g368
g2
(g32
(g388
g66
tp442
Rp443
(dp444
bg32
(g34
g388
g38
tp445
Rp446
(dp447
bg32
(g34
g348
tp448
Rp449
(dp450
bg32
(g388
g359
tp451
Rp452
(dp453
btp454
Rp455
(dp456
btp457
Rp458
(dp459
bg368
tp460
Rp461
(dp462
bg286
tp463
a(g2
(g32
(g348
g1
(g2
(g38
g32
(g34
g359
tp464
Rp465
(dp466
bg66
tp467
Rp468
(dp469
bg34
tp470
Rp471
(dp472
bg1
(g2
(g32
(g34
g38
g372
tp473
Rp474
(dp475
bg348
g443
g32
(g34
g388
g359
tp476
Rp477
(dp478
bg32
(g372
g2
(g290
g359
tp479
Rp480
(dp481
btp482
Rp483
(dp484
bg400
tp485
Rp486
(dp487
bg34
tp488
Rp489
(dp490
btp491
Rp492
(dp493
bg32
(g34
g471
tp494
Rp495
(dp496
btp497
Rp498
(dp499
bg414
(g417
g424
g431
g32
(g348
g471
g1
(g2
(g290
g359
g62
tp500
Rp501
(dp502
bg34
tp503
Rp504
(dp505
btp506
Rp507
(dp508
bg32
(g504
g2
(g32
(g34
g388
g38
tp509
Rp510
(dp511
bg449
g32
(g34
g388
g66
tp512
Rp513
(dp514
bg452
tp515
Rp516
(dp517
btp518
Rp519
(dp520
bg495
tp521
Rp522
(dp523
bg329
tp524
a(Ng417
g342
tp525
atp526
.